target datalayout = "e-m:e-p270:32:32-p271:32:32-p272:64:64-i64:64-i128:128-f80:128-n8:16:32:64-S128"
target triple = "x86_64-pc-linux-gnu"

%struct._archiveHandle = type { %struct.Archive, i32, ptr, ptr, i64, i64, i32, %struct.sqlparseInfo, i64, i32, ptr, i64, i64, i64, ptr, ptr, ptr, ptr, ptr, ptr, ptr, ptr, ptr, ptr, ptr, ptr, ptr, ptr, ptr, ptr, ptr, ptr, ptr, ptr, ptr, ptr, ptr, ptr, ptr, ptr, ptr, ptr, ptr, ptr, i32, i32, i8, i32, i8, i32, ptr, ptr, ptr, ptr, i32, i32, ptr, ptr, ptr, %struct.pg_compress_specification, i8, i32, i32, ptr, ptr, ptr, ptr, ptr, i32, ptr, i64, i64, i32, i32, i32, i32, ptr, ptr }
%struct.Archive = type { ptr, ptr, i32, ptr, i32, i8, i32, i32, i32, ptr, i32, i8, ptr, ptr, i8, i32, ptr }
%struct.sqlparseInfo = type { i32, i8, ptr }
%struct.pg_compress_specification = type { i32, i32, i32, i32, i8, ptr }

@.str.12 = private unnamed_addr constant [41 x i8] c"query returned %d row instead of one: %s\00", align 1
@.str.13 = private unnamed_addr constant [42 x i8] c"query returned %d rows instead of one: %s\00", align 1

; Function Attrs: nounwind uwtable
define dso_local ptr @ExecuteSqlQuery(ptr noundef %0, ptr noundef %1, i32 noundef %2) #0 {
  %4 = alloca ptr, align 8
  %5 = alloca ptr, align 8
  %6 = alloca i32, align 4
  %7 = alloca ptr, align 8
  %8 = alloca ptr, align 8
  store ptr %0, ptr %4, align 8
  store ptr %1, ptr %5, align 8
  store i32 %2, ptr %6, align 4
  call void @llvm.lifetime.start.p0(i64 8, ptr %7) #9
  %9 = load ptr, ptr %4, align 8
  store ptr %9, ptr %7, align 8
  call void @llvm.lifetime.start.p0(i64 8, ptr %8) #9
  %10 = load ptr, ptr %7, align 8
  %11 = getelementptr inbounds nuw %struct._archiveHandle, ptr %10, i32 0, i32 42
  %12 = load ptr, ptr %11, align 8
  %13 = load ptr, ptr %5, align 8
  %14 = call ptr @PQexec(ptr noundef %12, ptr noundef %13)
  store ptr %14, ptr %8, align 8
  %15 = load ptr, ptr %8, align 8
  %16 = call i32 @PQresultStatus(ptr noundef %15)
  %17 = load i32, ptr %6, align 4
  %18 = icmp ne i32 %16, %17
  br i1 %18, label %19, label %22

19:                                               ; preds = %3
  %20 = load ptr, ptr %7, align 8
  %21 = load ptr, ptr %5, align 8
  call void @die_on_query_failure(ptr noundef %20, ptr noundef %21)
  br label %22

22:                                               ; preds = %19, %3
  %23 = load ptr, ptr %8, align 8
  call void @llvm.lifetime.end.p0(i64 8, ptr %8) #9
  call void @llvm.lifetime.end.p0(i64 8, ptr %7) #9
  ret ptr %23
}

; Function Attrs: nounwind uwtable
define dso_local ptr @ExecuteSqlQueryForSingleRow(ptr noundef %0, ptr noundef %1) #0 {
  %3 = alloca ptr, align 8
  %4 = alloca ptr, align 8
  %5 = alloca ptr, align 8
  %6 = alloca i32, align 4
  store ptr %0, ptr %3, align 8
  store ptr %1, ptr %4, align 8
  call void @llvm.lifetime.start.p0(i64 8, ptr %5) #9
  call void @llvm.lifetime.start.p0(i64 4, ptr %6) #9
  %7 = load ptr, ptr %3, align 8
  %8 = load ptr, ptr %4, align 8
  %9 = call ptr @ExecuteSqlQuery(ptr noundef %7, ptr noundef %8, i32 noundef 2)
  store ptr %9, ptr %5, align 8
  %10 = load ptr, ptr %5, align 8
  %11 = call i32 @PQntuples(ptr noundef %10)
  store i32 %11, ptr %6, align 4
  %12 = load i32, ptr %6, align 4
  %13 = icmp ne i32 %12, 1
  br i1 %13, label %14, label %23

14:                                               ; preds = %2
  br label %15

15:                                               ; preds = %14
  %16 = load i32, ptr %6, align 4
  %17 = icmp eq i32 %16, 1
  %18 = select i1 %17, ptr @.str.12, ptr @.str.13
  %19 = load i32, ptr %6, align 4
  %20 = load ptr, ptr %4, align 8
  call void (i32, i32, ptr, ...) @pg_log_generic(i32 noundef 4, i32 noundef 0, ptr noundef %18, i32 noundef %19, ptr noundef %20)
  call void @exit_nicely(i32 noundef 1) #10
  unreachable

21:                                               ; No predecessors!
  br label %22

22:                                               ; preds = %21
  br label %23

23:                                               ; preds = %22, %2
  %24 = load ptr, ptr %5, align 8
  call void @llvm.lifetime.end.p0(i64 4, ptr %6) #9
  call void @llvm.lifetime.end.p0(i64 8, ptr %5) #9
  ret ptr %24
}