; Function Attrs: nounwind uwtable
define dso_local noundef ptr @ExecuteSqlQueryForSingleRow(ptr noundef readonly captures(none) %0, ptr noundef %1) local_unnamed_addr #0 {
  %3 = getelementptr inbounds nuw i8, ptr %0, i64 440
  %4 = load ptr, ptr %3, align 8
  %5 = tail call ptr @PQexec(ptr noundef %4, ptr noundef %1) #11
  %6 = tail call i32 @PQresultStatus(ptr noundef %5) #11
  %.not.i = icmp eq i32 %6, 2
  br i1 %.not.i, label %ExecuteSqlQuery.exit, label %7

7:                                                ; preds = %2
  %.val.i = load ptr, ptr %3, align 8
  tail call fastcc void @die_on_query_failure(ptr %.val.i, ptr noundef %1)
  unreachable

ExecuteSqlQuery.exit:                             ; preds = %2
  %8 = tail call i32 @PQntuples(ptr noundef %5) #11
  %.not = icmp eq i32 %8, 1
  br i1 %.not, label %10, label %9

9:                                                ; preds = %ExecuteSqlQuery.exit
  tail call void (i32, i32, ptr, ...) @pg_log_generic(i32 noundef 4, i32 noundef 0, ptr noundef nonnull @.str.13, i32 noundef %8, ptr noundef %1) #11
  tail call void @exit_nicely(i32 noundef 1) #12
  unreachable

10:                                               ; preds = %ExecuteSqlQuery.exit
  ret ptr %5
}